; Function Attrs: mustprogress uwtable
define noundef nonnull align 8 dereferenceable(176) ptr @_ZNK3gmx30TrajectoryAnalysisRunnerCommon5frameEv(ptr nocapture noundef nonnull readonly align 8 dereferenceable(8) %0) local_unnamed_addr #0 align 2 {
  %2 = load ptr, ptr %0, align 8
  %3 = getelementptr inbounds i8, ptr %2, i64 248
  %4 = load ptr, ptr %3, align 8
  %.not = icmp eq ptr %4, null
  br i1 %.not, label %5, label %6

5:                                                ; preds = %1
  tail call void @_ZN3gmx8internal13assertHandlerEPKcS2_S2_S2_i(ptr noundef nonnull @.str.37, ptr noundef nonnull @.str.38, ptr noundef nonnull @"__PRETTY_FUNCTION__._ZZNK3gmx30TrajectoryAnalysisRunnerCommon5frameEvENK3$_0clEv", ptr noundef nonnull @.str.1, i32 noundef 476) #14
  unreachable

6:                                                ; preds = %1
  ret ptr %4
}